; Function Attrs: mustprogress nounwind uwtable
define void @_ZN5arrow10InitializeERKNS_13GlobalOptionsE(ptr dead_on_unwind noalias writable sret(%"class.arrow::Status") align 8 %0, ptr noundef nonnull readonly align 8 captures(none) dereferenceable(40) %1) local_unnamed_addr #6 personality ptr @__gxx_personality_v0 {
  %3 = getelementptr inbounds nuw i8, ptr %1, i64 32
  %4 = load i8, ptr %3, align 8, !tbaa !13, !range !16, !noundef !17
  %5 = trunc nuw i8 %4 to i1
  br i1 %5, label %6, label %7

6:                                                ; preds = %2
  invoke void @_ZN5arrow6Status8FromArgsIJRA115_KcEEES0_NS_10StatusCodeEDpOT_(ptr dead_on_unwind writable sret(%"class.arrow::Status") align 8 %0, i8 noundef signext 4, ptr noundef nonnull align 1 dereferenceable(115) @.str.11)
          to label %_ZN5arrow6Status7InvalidIJRA115_KcEEES0_DpOT_.exit unwind label %8

7:                                                ; preds = %2
  store ptr null, ptr %0, align 8, !tbaa !32, !alias.scope !35
  br label %_ZN5arrow6Status7InvalidIJRA115_KcEEES0_DpOT_.exit

_ZN5arrow6Status7InvalidIJRA115_KcEEES0_DpOT_.exit: ; preds = %6, %7
  ret void

8:                                                ; preds = %6
  %9 = landingpad { ptr, i32 }
          catch ptr null
  %10 = extractvalue { ptr, i32 } %9, 0
  tail call void @__clang_call_terminate(ptr %10) #17
  unreachable
}